target datalayout = "e-m:e-p270:32:32-p271:32:32-p272:64:64-i64:64-i128:128-f80:128-n8:16:32:64-S128"
target triple = "x86_64-pc-linux-gnu"

%struct.H5FS_node_t = type { i64, i64, i64, ptr }

@.str.3 = private unnamed_addr constant [105 x i8] c"generated/home/dtcxzyw/WorkSpace/Projects/compilers/llvm-opt-benchmark/bench/hdf5/hdf5/src/H5FSsection.c\00", align 1
@H5E_FSPACE_g = external global i64, align 8
@H5E_BADITER_g = external global i64, align 8
@__func__.H5FS__iterate_node_cb = private unnamed_addr constant [22 x i8] c"H5FS__iterate_node_cb\00", align 1
@.str.53 = private unnamed_addr constant [33 x i8] c"can't iterate over section nodes\00", align 1

; Function Attrs: nounwind uwtable
define internal i32 @H5FS__iterate_node_cb(ptr noundef %0, ptr noundef %1, ptr noundef %2) #0 {
  %4 = alloca ptr, align 8
  %5 = alloca ptr, align 8
  %6 = alloca ptr, align 8
  %7 = alloca ptr, align 8
  %8 = alloca ptr, align 8
  %9 = alloca i32, align 4
  %10 = alloca i8, align 1
  store ptr %0, ptr %4, align 8
  store ptr %1, ptr %5, align 8
  store ptr %2, ptr %6, align 8
  %11 = load ptr, ptr %4, align 8
  store ptr %11, ptr %7, align 8
  %12 = load ptr, ptr %6, align 8
  store ptr %12, ptr %8, align 8
  store i32 0, ptr %9, align 4
  store i8 0, ptr %10, align 1
  %13 = load ptr, ptr %7, align 8
  %14 = getelementptr inbounds %struct.H5FS_node_t, ptr %13, i32 0, i32 3
  %15 = load ptr, ptr %14, align 8
  %16 = load ptr, ptr %8, align 8
  %17 = call i32 @H5SL_iterate(ptr noundef %15, ptr noundef @H5FS__iterate_sect_cb, ptr noundef %16)
  %18 = icmp slt i32 %17, 0
  br i1 %18, label %19, label %34

19:                                               ; preds = %3
  br label %20

20:                                               ; preds = %19
  br label %21

21:                                               ; preds = %20
  br label %22

22:                                               ; preds = %21
  %23 = load i64, ptr @H5E_FSPACE_g, align 8
  %24 = load i64, ptr @H5E_BADITER_g, align 8
  %25 = call i32 (ptr, ptr, i32, i64, i64, ptr, ...) @H5E_printf_stack(ptr noundef @.str.3, ptr noundef @__func__.H5FS__iterate_node_cb, i32 noundef 1826, i64 noundef %23, i64 noundef %24, ptr noundef @.str.53)
  br label %26

26:                                               ; preds = %22
  store i8 1, ptr %10, align 1
  %27 = load i8, ptr %10, align 1
  %28 = trunc i8 %27 to i1
  %29 = zext i1 %28 to i8
  store i8 %29, ptr %10, align 1
  br label %30

30:                                               ; preds = %26
  br label %31

31:                                               ; preds = %30
  store i32 -1, ptr %9, align 4
  br label %35

32:                                               ; No predecessors!
  br label %33

33:                                               ; preds = %32
  br label %34

34:                                               ; preds = %33, %3
  br label %35

35:                                               ; preds = %34, %31
  %36 = load i32, ptr %9, align 4
  ret i32 %36
}