; Function Attrs: nounwind uwtable
define internal range(i32 -1, 1) i32 @H5FS__iterate_node_cb(ptr nocapture noundef readonly %0, ptr nocapture readnone %1, ptr noundef %2) #0 {
  %4 = getelementptr inbounds i8, ptr %0, i64 24
  %5 = load ptr, ptr %4, align 8
  %6 = tail call i32 @H5SL_iterate(ptr noundef %5, ptr noundef nonnull @H5FS__iterate_sect_cb, ptr noundef %2) #6
  %7 = icmp slt i32 %6, 0
  br i1 %7, label %8, label %12

8:                                                ; preds = %3
  %9 = load i64, ptr @H5E_FSPACE_g, align 8
  %10 = load i64, ptr @H5E_BADITER_g, align 8
  %11 = tail call i32 (ptr, ptr, i32, i64, i64, ptr, ...) @H5E_printf_stack(ptr noundef nonnull @.str.3, ptr noundef nonnull @__func__.H5FS__iterate_node_cb, i32 noundef 1826, i64 noundef %9, i64 noundef %10, ptr noundef nonnull @.str.53) #6
  br label %12

12:                                               ; preds = %3, %8
  %.0 = phi i32 [ -1, %8 ], [ 0, %3 ]
  ret i32 %.0
}